; Function Attrs: mustprogress ssp uwtable
define void @_ZNK6open3d4core10TensorList5CloneEv(ptr dead_on_unwind noalias nonnull writable sret(%"class.open3d::core::TensorList") align 8 %0, ptr noundef nonnull align 8 dereferenceable(225) %1) local_unnamed_addr #0 align 2 personality ptr @__gxx_personality_v0 {
  tail call void @_ZN6open3d4core10TensorListC2ERKS1_(ptr noundef nonnull align 8 dereferenceable(225) %0, ptr noundef nonnull align 8 dereferenceable(225) %1)
  invoke void @_ZN6open3d4core10TensorList8CopyFromERKS1_(ptr noundef nonnull align 8 dereferenceable(225) %0, ptr noundef nonnull align 8 dereferenceable(225) %1)
          to label %5 unwind label %3

3:                                                ; preds = %2
  %4 = landingpad { ptr, i32 }
          cleanup
  tail call void @_ZN6open3d4core10TensorListD2Ev(ptr noundef nonnull align 8 dereferenceable(225) %0) #29
  resume { ptr, i32 } %4

5:                                                ; preds = %2
  ret void
}